; ModuleID = '39/1764.c'
source_filename = "39/1764.c"
target datalayout = "e-m:e-p270:32:32-p271:32:32-p272:64:64-i64:64-f80:128-n8:16:32:64-S128"
target triple = "x86_64-pc-linux-gnu"

%struct.student = type { [21 x i8], i32, i32, i8, i8, i32 }

@.str = private unnamed_addr constant [3 x i8] c"%d\00", align 1
@.str.1 = private unnamed_addr constant [18 x i8] c"%s %d %d %c %c %d\00", align 1
@.str.2 = private unnamed_addr constant [9 x i8] c"%s\0A%d\0A%d\00", align 1

; Function Attrs: noinline nounwind uwtable
define dso_local void @main() #0 {
  %1 = alloca [101 x %struct.student], align 16
  %2 = alloca i32, align 4
  %3 = alloca i32, align 4
  %4 = alloca i32, align 4
  %5 = alloca [101 x i32], align 16
  %6 = alloca i32, align 4
  %7 = alloca i32, align 4
  store i32 0, i32* %6, align 4
  store i32 0, i32* %7, align 4
  %8 = call i32 (i8*, ...) @__isoc99_scanf(i8* getelementptr inbounds ([3 x i8], [3 x i8]* @.str, i64 0, i64 0), i32* %3)
  store i32 0, i32* %2, align 4
  br label %9

9:                                                ; preds = %39, %0
  %10 = load i32, i32* %2, align 4
  %11 = load i32, i32* %3, align 4
  %12 = icmp slt i32 %10, %11
  br i1 %12, label %13, label %42

13:                                               ; preds = %9
  %14 = load i32, i32* %2, align 4
  %15 = sext i32 %14 to i64
  %16 = getelementptr inbounds [101 x %struct.student], [101 x %struct.student]* %1, i64 0, i64 %15
  %17 = getelementptr inbounds %struct.student, %struct.student* %16, i32 0, i32 0
  %18 = load i32, i32* %2, align 4
  %19 = sext i32 %18 to i64
  %20 = getelementptr inbounds [101 x %struct.student], [101 x %struct.student]* %1, i64 0, i64 %19
  %21 = getelementptr inbounds %struct.student, %struct.student* %20, i32 0, i32 1
  %22 = load i32, i32* %2, align 4
  %23 = sext i32 %22 to i64
  %24 = getelementptr inbounds [101 x %struct.student], [101 x %struct.student]* %1, i64 0, i64 %23
  %25 = getelementptr inbounds %struct.student, %struct.student* %24, i32 0, i32 2
  %26 = load i32, i32* %2, align 4
  %27 = sext i32 %26 to i64
  %28 = getelementptr inbounds [101 x %struct.student], [101 x %struct.student]* %1, i64 0, i64 %27
  %29 = getelementptr inbounds %struct.student, %struct.student* %28, i32 0, i32 3
  %30 = load i32, i32* %2, align 4
  %31 = sext i32 %30 to i64
  %32 = getelementptr inbounds [101 x %struct.student], [101 x %struct.student]* %1, i64 0, i64 %31
  %33 = getelementptr inbounds %struct.student, %struct.student* %32, i32 0, i32 4
  %34 = load i32, i32* %2, align 4
  %35 = sext i32 %34 to i64
  %36 = getelementptr inbounds [101 x %struct.student], [101 x %struct.student]* %1, i64 0, i64 %35
  %37 = getelementptr inbounds %struct.student, %struct.student* %36, i32 0, i32 5
  %38 = call i32 (i8*, ...) @__isoc99_scanf(i8* getelementptr inbounds ([18 x i8], [18 x i8]* @.str.1, i64 0, i64 0), [21 x i8]* %17, i32* %21, i32* %25, i8* %29, i8* %33, i32* %37)
  br label %39

39:                                               ; preds = %13
  %40 = load i32, i32* %2, align 4
  %41 = add nsw i32 %40, 1
  store i32 %41, i32* %2, align 4
  br label %9

42:                                               ; preds = %9
  store i32 0, i32* %4, align 4
  br label %43

43:                                               ; preds = %51, %42
  %44 = load i32, i32* %4, align 4
  %45 = load i32, i32* %3, align 4
  %46 = icmp slt i32 %44, %45
  br i1 %46, label %47, label %54

47:                                               ; preds = %43
  %48 = load i32, i32* %4, align 4
  %49 = sext i32 %48 to i64
  %50 = getelementptr inbounds [101 x i32], [101 x i32]* %5, i64 0, i64 %49
  store i32 0, i32* %50, align 4
  br label %51

51:                                               ; preds = %47
  %52 = load i32, i32* %4, align 4
  %53 = add nsw i32 %52, 1
  store i32 %53, i32* %4, align 4
  br label %43

54:                                               ; preds = %43
  store i32 0, i32* %4, align 4
  store i32 0, i32* %2, align 4
  br label %55

55:                                               ; preds = %175, %54
  %56 = load i32, i32* %2, align 4
  %57 = load i32, i32* %3, align 4
  %58 = icmp slt i32 %56, %57
  br i1 %58, label %59, label %178

59:                                               ; preds = %55
  %60 = load i32, i32* %2, align 4
  %61 = sext i32 %60 to i64
  %62 = getelementptr inbounds [101 x %struct.student], [101 x %struct.student]* %1, i64 0, i64 %61
  %63 = getelementptr inbounds %struct.student, %struct.student* %62, i32 0, i32 1
  %64 = load i32, i32* %63, align 8
  %65 = icmp sgt i32 %64, 80
  br i1 %65, label %66, label %79

66:                                               ; preds = %59
  %67 = load i32, i32* %2, align 4
  %68 = sext i32 %67 to i64
  %69 = getelementptr inbounds [101 x %struct.student], [101 x %struct.student]* %1, i64 0, i64 %68
  %70 = getelementptr inbounds %struct.student, %struct.student* %69, i32 0, i32 5
  %71 = load i32, i32* %70, align 4
  %72 = icmp sgt i32 %71, 0
  br i1 %72, label %73, label %79

73:                                               ; preds = %66
  %74 = load i32, i32* %4, align 4
  %75 = sext i32 %74 to i64
  %76 = getelementptr inbounds [101 x i32], [101 x i32]* %5, i64 0, i64 %75
  %77 = load i32, i32* %76, align 4
  %78 = add nsw i32 %77, 8000
  store i32 %78, i32* %76, align 4
  br label %79

79:                                               ; preds = %73, %66, %59
  %80 = load i32, i32* %2, align 4
  %81 = sext i32 %80 to i64
  %82 = getelementptr inbounds [101 x %struct.student], [101 x %struct.student]* %1, i64 0, i64 %81
  %83 = getelementptr inbounds %struct.student, %struct.student* %82, i32 0, i32 1
  %84 = load i32, i32* %83, align 8
  %85 = icmp sgt i32 %84, 85
  br i1 %85, label %86, label %99

86:                                               ; preds = %79
  %87 = load i32, i32* %2, align 4
  %88 = sext i32 %87 to i64
  %89 = getelementptr inbounds [101 x %struct.student], [101 x %struct.student]* %1, i64 0, i64 %88
  %90 = getelementptr inbounds %struct.student, %struct.student* %89, i32 0, i32 2
  %91 = load i32, i32* %90, align 4
  %92 = icmp sgt i32 %91, 80
  br i1 %92, label %93, label %99

93:                                               ; preds = %86
  %94 = load i32, i32* %4, align 4
  %95 = sext i32 %94 to i64
  %96 = getelementptr inbounds [101 x i32], [101 x i32]* %5, i64 0, i64 %95
  %97 = load i32, i32* %96, align 4
  %98 = add nsw i32 %97, 4000
  store i32 %98, i32* %96, align 4
  br label %99

99:                                               ; preds = %93, %86, %79
  %100 = load i32, i32* %2, align 4
  %101 = sext i32 %100 to i64
  %102 = getelementptr inbounds [101 x %struct.student], [101 x %struct.student]* %1, i64 0, i64 %101
  %103 = getelementptr inbounds %struct.student, %struct.student* %102, i32 0, i32 1
  %104 = load i32, i32* %103, align 8
  %105 = icmp sgt i32 %104, 90
  br i1 %105, label %106, label %112

106:                                              ; preds = %99
  %107 = load i32, i32* %4, align 4
  %108 = sext i32 %107 to i64
  %109 = getelementptr inbounds [101 x i32], [101 x i32]* %5, i64 0, i64 %108
  %110 = load i32, i32* %109, align 4
  %111 = add nsw i32 %110, 2000
  store i32 %111, i32* %109, align 4
  br label %112

112:                                              ; preds = %106, %99
  %113 = load i32, i32* %2, align 4
  %114 = sext i32 %113 to i64
  %115 = getelementptr inbounds [101 x %struct.student], [101 x %struct.student]* %1, i64 0, i64 %114
  %116 = getelementptr inbounds %struct.student, %struct.student* %115, i32 0, i32 1
  %117 = load i32, i32* %116, align 8
  %118 = icmp sgt i32 %117, 85
  br i1 %118, label %119, label %133

119:                                              ; preds = %112
  %120 = load i32, i32* %2, align 4
  %121 = sext i32 %120 to i64
  %122 = getelementptr inbounds [101 x %struct.student], [101 x %struct.student]* %1, i64 0, i64 %121
  %123 = getelementptr inbounds %struct.student, %struct.student* %122, i32 0, i32 4
  %124 = load i8, i8* %123, align 1
  %125 = sext i8 %124 to i32
  %126 = icmp eq i32 %125, 89
  br i1 %126, label %127, label %133

127:                                              ; preds = %119
  %128 = load i32, i32* %4, align 4
  %129 = sext i32 %128 to i64
  %130 = getelementptr inbounds [101 x i32], [101 x i32]* %5, i64 0, i64 %129
  %131 = load i32, i32* %130, align 4
  %132 = add nsw i32 %131, 1000
  store i32 %132, i32* %130, align 4
  br label %133

133:                                              ; preds = %127, %119, %112
  %134 = load i32, i32* %2, align 4
  %135 = sext i32 %134 to i64
  %136 = getelementptr inbounds [101 x %struct.student], [101 x %struct.student]* %1, i64 0, i64 %135
  %137 = getelementptr inbounds %struct.student, %struct.student* %136, i32 0, i32 2
  %138 = load i32, i32* %137, align 4
  %139 = icmp sgt i32 %138, 80
  br i1 %139, label %140, label %154

140:                                              ; preds = %133
  %141 = load i32, i32* %2, align 4
  %142 = sext i32 %141 to i64
  %143 = getelementptr inbounds [101 x %struct.student], [101 x %struct.student]* %1, i64 0, i64 %142
  %144 = getelementptr inbounds %struct.student, %struct.student* %143, i32 0, i32 3
  %145 = load i8, i8* %144, align 8
  %146 = sext i8 %145 to i32
  %147 = icmp eq i32 %146, 89
  br i1 %147, label %148, label %154

148:                                              ; preds = %140
  %149 = load i32, i32* %4, align 4
  %150 = sext i32 %149 to i64
  %151 = getelementptr inbounds [101 x i32], [101 x i32]* %5, i64 0, i64 %150
  %152 = load i32, i32* %151, align 4
  %153 = add nsw i32 %152, 850
  store i32 %153, i32* %151, align 4
  br label %154

154:                                              ; preds = %148, %140, %133
  %155 = load i32, i32* %4, align 4
  %156 = sext i32 %155 to i64
  %157 = getelementptr inbounds [101 x i32], [101 x i32]* %5, i64 0, i64 %156
  %158 = load i32, i32* %157, align 4
  %159 = load i32, i32* %6, align 4
  %160 = sext i32 %159 to i64
  %161 = getelementptr inbounds [101 x i32], [101 x i32]* %5, i64 0, i64 %160
  %162 = load i32, i32* %161, align 4
  %163 = icmp sgt i32 %158, %162
  br i1 %163, label %164, label %166

164:                                              ; preds = %154
  %165 = load i32, i32* %4, align 4
  store i32 %165, i32* %6, align 4
  br label %166

166:                                              ; preds = %164, %154
  %167 = load i32, i32* %4, align 4
  %168 = sext i32 %167 to i64
  %169 = getelementptr inbounds [101 x i32], [101 x i32]* %5, i64 0, i64 %168
  %170 = load i32, i32* %169, align 4
  %171 = load i32, i32* %7, align 4
  %172 = add nsw i32 %171, %170
  store i32 %172, i32* %7, align 4
  %173 = load i32, i32* %4, align 4
  %174 = add nsw i32 %173, 1
  store i32 %174, i32* %4, align 4
  br label %175

175:                                              ; preds = %166
  %176 = load i32, i32* %2, align 4
  %177 = add nsw i32 %176, 1
  store i32 %177, i32* %2, align 4
  br label %55

178:                                              ; preds = %55
  %179 = load i32, i32* %6, align 4
  %180 = sext i32 %179 to i64
  %181 = getelementptr inbounds [101 x %struct.student], [101 x %struct.student]* %1, i64 0, i64 %180
  %182 = getelementptr inbounds %struct.student, %struct.student* %181, i32 0, i32 0
  %183 = getelementptr inbounds [21 x i8], [21 x i8]* %182, i64 0, i64 0
  %184 = load i32, i32* %6, align 4
  %185 = sext i32 %184 to i64
  %186 = getelementptr inbounds [101 x i32], [101 x i32]* %5, i64 0, i64 %185
  %187 = load i32, i32* %186, align 4
  %188 = load i32, i32* %7, align 4
  %189 = call i32 (i8*, ...) @printf(i8* getelementptr inbounds ([9 x i8], [9 x i8]* @.str.2, i64 0, i64 0), i8* %183, i32 %187, i32 %188)
  ret void
}

declare dso_local i32 @__isoc99_scanf(i8*, ...) #1

declare dso_local i32 @printf(i8*, ...) #1


!llvm.module.flags = !{!0}
!llvm.ident = !{!1}

!0 = !{i32 1, !"wchar_size", i32 4}
!1 = !{!"clang version 10.0.0-4ubuntu1 "}
